
_grep:     file format elf32-i386


Disassembly of section .text:

00000000 <main>:
   0:	8d 4c 24 04          	lea    0x4(%esp),%ecx
   4:	83 e4 f0             	and    $0xfffffff0,%esp
   7:	ff 71 fc             	pushl  -0x4(%ecx)
   a:	55                   	push   %ebp
   b:	89 e5                	mov    %esp,%ebp
   d:	57                   	push   %edi
   e:	56                   	push   %esi
   f:	53                   	push   %ebx
  10:	51                   	push   %ecx
  11:	83 ec 18             	sub    $0x18,%esp
  14:	8b 39                	mov    (%ecx),%edi
  16:	8b 59 04             	mov    0x4(%ecx),%ebx
  19:	83 ff 01             	cmp    $0x1,%edi
  1c:	7e 7c                	jle    9a <main+0x9a>
  1e:	8b 43 04             	mov    0x4(%ebx),%eax
  21:	83 c3 08             	add    $0x8,%ebx
  24:	83 ff 02             	cmp    $0x2,%edi
  27:	be 02 00 00 00       	mov    $0x2,%esi
  2c:	89 45 e0             	mov    %eax,-0x20(%ebp)
  2f:	74 46                	je     77 <main+0x77>
  31:	8d b4 26 00 00 00 00 	lea    0x0(%esi,%eiz,1),%esi
  38:	83 ec 08             	sub    $0x8,%esp
  3b:	6a 00                	push   $0x0
  3d:	ff 33                	pushl  (%ebx)
  3f:	e8 7e 05 00 00       	call   5c2 <open>
  44:	83 c4 10             	add    $0x10,%esp
  47:	85 c0                	test   %eax,%eax
  49:	78 3b                	js     86 <main+0x86>
  4b:	83 ec 08             	sub    $0x8,%esp
  4e:	89 45 e4             	mov    %eax,-0x1c(%ebp)
  51:	83 c6 01             	add    $0x1,%esi
  54:	50                   	push   %eax
  55:	ff 75 e0             	pushl  -0x20(%ebp)
  58:	83 c3 04             	add    $0x4,%ebx
  5b:	e8 d0 01 00 00       	call   230 <grep>
  60:	8b 45 e4             	mov    -0x1c(%ebp),%eax
  63:	89 04 24             	mov    %eax,(%esp)
  66:	e8 3f 05 00 00       	call   5aa <close>
  6b:	83 c4 10             	add    $0x10,%esp
  6e:	39 f7                	cmp    %esi,%edi
  70:	7f c6                	jg     38 <main+0x38>
  72:	e8 0b 05 00 00       	call   582 <exit>
  77:	52                   	push   %edx
  78:	52                   	push   %edx
  79:	6a 00                	push   $0x0
  7b:	50                   	push   %eax
  7c:	e8 af 01 00 00       	call   230 <grep>
  81:	e8 fc 04 00 00       	call   582 <exit>
  86:	50                   	push   %eax
  87:	ff 33                	pushl  (%ebx)
  89:	68 88 0a 00 00       	push   $0xa88
  8e:	6a 01                	push   $0x1
  90:	e8 5b 06 00 00       	call   6f0 <printf>
  95:	e8 e8 04 00 00       	call   582 <exit>
  9a:	51                   	push   %ecx
  9b:	51                   	push   %ecx
  9c:	68 68 0a 00 00       	push   $0xa68
  a1:	6a 02                	push   $0x2
  a3:	e8 48 06 00 00       	call   6f0 <printf>
  a8:	e8 d5 04 00 00       	call   582 <exit>
  ad:	66 90                	xchg   %ax,%ax
  af:	90                   	nop

000000b0 <matchstar>:
  b0:	55                   	push   %ebp
  b1:	89 e5                	mov    %esp,%ebp
  b3:	57                   	push   %edi
  b4:	56                   	push   %esi
  b5:	53                   	push   %ebx
  b6:	83 ec 0c             	sub    $0xc,%esp
  b9:	8b 5d 08             	mov    0x8(%ebp),%ebx
  bc:	8b 75 0c             	mov    0xc(%ebp),%esi
  bf:	8b 7d 10             	mov    0x10(%ebp),%edi
  c2:	8d b6 00 00 00 00    	lea    0x0(%esi),%esi
  c8:	83 ec 08             	sub    $0x8,%esp
  cb:	57                   	push   %edi
  cc:	56                   	push   %esi
  cd:	e8 3e 00 00 00       	call   110 <matchhere>
  d2:	83 c4 10             	add    $0x10,%esp
  d5:	85 c0                	test   %eax,%eax
  d7:	75 1f                	jne    f8 <matchstar+0x48>
  d9:	0f be 17             	movsbl (%edi),%edx
  dc:	84 d2                	test   %dl,%dl
  de:	74 0c                	je     ec <matchstar+0x3c>
  e0:	83 c7 01             	add    $0x1,%edi
  e3:	39 da                	cmp    %ebx,%edx
  e5:	74 e1                	je     c8 <matchstar+0x18>
  e7:	83 fb 2e             	cmp    $0x2e,%ebx
  ea:	74 dc                	je     c8 <matchstar+0x18>
  ec:	8d 65 f4             	lea    -0xc(%ebp),%esp
  ef:	5b                   	pop    %ebx
  f0:	5e                   	pop    %esi
  f1:	5f                   	pop    %edi
  f2:	5d                   	pop    %ebp
  f3:	c3                   	ret    
  f4:	8d 74 26 00          	lea    0x0(%esi,%eiz,1),%esi
  f8:	8d 65 f4             	lea    -0xc(%ebp),%esp
  fb:	b8 01 00 00 00       	mov    $0x1,%eax
 100:	5b                   	pop    %ebx
 101:	5e                   	pop    %esi
 102:	5f                   	pop    %edi
 103:	5d                   	pop    %ebp
 104:	c3                   	ret    
 105:	8d 74 26 00          	lea    0x0(%esi,%eiz,1),%esi
 109:	8d bc 27 00 00 00 00 	lea    0x0(%edi,%eiz,1),%edi

00000110 <matchhere>:
 110:	55                   	push   %ebp
 111:	89 e5                	mov    %esp,%ebp
 113:	57                   	push   %edi
 114:	56                   	push   %esi
 115:	53                   	push   %ebx
 116:	83 ec 0c             	sub    $0xc,%esp
 119:	8b 45 08             	mov    0x8(%ebp),%eax
 11c:	8b 7d 0c             	mov    0xc(%ebp),%edi
 11f:	0f b6 08             	movzbl (%eax),%ecx
 122:	84 c9                	test   %cl,%cl
 124:	74 67                	je     18d <matchhere+0x7d>
 126:	0f be 40 01          	movsbl 0x1(%eax),%eax
 12a:	3c 2a                	cmp    $0x2a,%al
 12c:	74 6c                	je     19a <matchhere+0x8a>
 12e:	80 f9 24             	cmp    $0x24,%cl
 131:	0f b6 1f             	movzbl (%edi),%ebx
 134:	75 08                	jne    13e <matchhere+0x2e>
 136:	84 c0                	test   %al,%al
 138:	0f 84 81 00 00 00    	je     1bf <matchhere+0xaf>
 13e:	84 db                	test   %bl,%bl
 140:	74 09                	je     14b <matchhere+0x3b>
 142:	38 d9                	cmp    %bl,%cl
 144:	74 3c                	je     182 <matchhere+0x72>
 146:	80 f9 2e             	cmp    $0x2e,%cl
 149:	74 37                	je     182 <matchhere+0x72>
 14b:	8d 65 f4             	lea    -0xc(%ebp),%esp
 14e:	31 c0                	xor    %eax,%eax
 150:	5b                   	pop    %ebx
 151:	5e                   	pop    %esi
 152:	5f                   	pop    %edi
 153:	5d                   	pop    %ebp
 154:	c3                   	ret    
 155:	8d 76 00             	lea    0x0(%esi),%esi
 158:	8b 75 08             	mov    0x8(%ebp),%esi
 15b:	0f b6 4e 01          	movzbl 0x1(%esi),%ecx
 15f:	80 f9 2a             	cmp    $0x2a,%cl
 162:	74 3b                	je     19f <matchhere+0x8f>
 164:	3c 24                	cmp    $0x24,%al
 166:	75 04                	jne    16c <matchhere+0x5c>
 168:	84 c9                	test   %cl,%cl
 16a:	74 4f                	je     1bb <matchhere+0xab>
 16c:	0f b6 33             	movzbl (%ebx),%esi
 16f:	89 f2                	mov    %esi,%edx
 171:	84 d2                	test   %dl,%dl
 173:	74 d6                	je     14b <matchhere+0x3b>
 175:	3c 2e                	cmp    $0x2e,%al
 177:	89 df                	mov    %ebx,%edi
 179:	74 04                	je     17f <matchhere+0x6f>
 17b:	38 c2                	cmp    %al,%dl
 17d:	75 cc                	jne    14b <matchhere+0x3b>
 17f:	0f be c1             	movsbl %cl,%eax
 182:	83 45 08 01          	addl   $0x1,0x8(%ebp)
 186:	84 c0                	test   %al,%al
 188:	8d 5f 01             	lea    0x1(%edi),%ebx
 18b:	75 cb                	jne    158 <matchhere+0x48>
 18d:	b8 01 00 00 00       	mov    $0x1,%eax
 192:	8d 65 f4             	lea    -0xc(%ebp),%esp
 195:	5b                   	pop    %ebx
 196:	5e                   	pop    %esi
 197:	5f                   	pop    %edi
 198:	5d                   	pop    %ebp
 199:	c3                   	ret    
 19a:	89 fb                	mov    %edi,%ebx
 19c:	0f be c1             	movsbl %cl,%eax
 19f:	8b 7d 08             	mov    0x8(%ebp),%edi
 1a2:	83 ec 04             	sub    $0x4,%esp
 1a5:	53                   	push   %ebx
 1a6:	8d 57 02             	lea    0x2(%edi),%edx
 1a9:	52                   	push   %edx
 1aa:	50                   	push   %eax
 1ab:	e8 00 ff ff ff       	call   b0 <matchstar>
 1b0:	83 c4 10             	add    $0x10,%esp
 1b3:	8d 65 f4             	lea    -0xc(%ebp),%esp
 1b6:	5b                   	pop    %ebx
 1b7:	5e                   	pop    %esi
 1b8:	5f                   	pop    %edi
 1b9:	5d                   	pop    %ebp
 1ba:	c3                   	ret    
 1bb:	0f b6 5f 01          	movzbl 0x1(%edi),%ebx
 1bf:	31 c0                	xor    %eax,%eax
 1c1:	84 db                	test   %bl,%bl
 1c3:	0f 94 c0             	sete   %al
 1c6:	eb ca                	jmp    192 <matchhere+0x82>
 1c8:	90                   	nop
 1c9:	8d b4 26 00 00 00 00 	lea    0x0(%esi,%eiz,1),%esi

000001d0 <match>:
 1d0:	55                   	push   %ebp
 1d1:	89 e5                	mov    %esp,%ebp
 1d3:	56                   	push   %esi
 1d4:	53                   	push   %ebx
 1d5:	8b 75 08             	mov    0x8(%ebp),%esi
 1d8:	8b 5d 0c             	mov    0xc(%ebp),%ebx
 1db:	80 3e 5e             	cmpb   $0x5e,(%esi)
 1de:	75 11                	jne    1f1 <match+0x21>
 1e0:	eb 2e                	jmp    210 <match+0x40>
 1e2:	8d b6 00 00 00 00    	lea    0x0(%esi),%esi
 1e8:	83 c3 01             	add    $0x1,%ebx
 1eb:	80 7b ff 00          	cmpb   $0x0,-0x1(%ebx)
 1ef:	74 16                	je     207 <match+0x37>
 1f1:	83 ec 08             	sub    $0x8,%esp
 1f4:	53                   	push   %ebx
 1f5:	56                   	push   %esi
 1f6:	e8 15 ff ff ff       	call   110 <matchhere>
 1fb:	83 c4 10             	add    $0x10,%esp
 1fe:	85 c0                	test   %eax,%eax
 200:	74 e6                	je     1e8 <match+0x18>
 202:	b8 01 00 00 00       	mov    $0x1,%eax
 207:	8d 65 f8             	lea    -0x8(%ebp),%esp
 20a:	5b                   	pop    %ebx
 20b:	5e                   	pop    %esi
 20c:	5d                   	pop    %ebp
 20d:	c3                   	ret    
 20e:	66 90                	xchg   %ax,%ax
 210:	83 c6 01             	add    $0x1,%esi
 213:	89 75 08             	mov    %esi,0x8(%ebp)
 216:	8d 65 f8             	lea    -0x8(%ebp),%esp
 219:	5b                   	pop    %ebx
 21a:	5e                   	pop    %esi
 21b:	5d                   	pop    %ebp
 21c:	e9 ef fe ff ff       	jmp    110 <matchhere>
 221:	eb 0d                	jmp    230 <grep>
 223:	90                   	nop
 224:	90                   	nop
 225:	90                   	nop
 226:	90                   	nop
 227:	90                   	nop
 228:	90                   	nop
 229:	90                   	nop
 22a:	90                   	nop
 22b:	90                   	nop
 22c:	90                   	nop
 22d:	90                   	nop
 22e:	90                   	nop
 22f:	90                   	nop

00000230 <grep>:
 230:	55                   	push   %ebp
 231:	89 e5                	mov    %esp,%ebp
 233:	57                   	push   %edi
 234:	56                   	push   %esi
 235:	53                   	push   %ebx
 236:	31 f6                	xor    %esi,%esi
 238:	83 ec 1c             	sub    $0x1c,%esp
 23b:	90                   	nop
 23c:	8d 74 26 00          	lea    0x0(%esi,%eiz,1),%esi
 240:	b8 ff 03 00 00       	mov    $0x3ff,%eax
 245:	83 ec 04             	sub    $0x4,%esp
 248:	29 f0                	sub    %esi,%eax
 24a:	50                   	push   %eax
 24b:	8d 86 60 0e 00 00    	lea    0xe60(%esi),%eax
 251:	50                   	push   %eax
 252:	ff 75 0c             	pushl  0xc(%ebp)
 255:	e8 40 03 00 00       	call   59a <read>
 25a:	83 c4 10             	add    $0x10,%esp
 25d:	85 c0                	test   %eax,%eax
 25f:	0f 8e bb 00 00 00    	jle    320 <grep+0xf0>
 265:	01 c6                	add    %eax,%esi
 267:	bb 60 0e 00 00       	mov    $0xe60,%ebx
 26c:	c6 86 60 0e 00 00 00 	movb   $0x0,0xe60(%esi)
 273:	89 75 e4             	mov    %esi,-0x1c(%ebp)
 276:	8d 76 00             	lea    0x0(%esi),%esi
 279:	8d bc 27 00 00 00 00 	lea    0x0(%edi,%eiz,1),%edi
 280:	83 ec 08             	sub    $0x8,%esp
 283:	6a 0a                	push   $0xa
 285:	53                   	push   %ebx
 286:	e8 75 01 00 00       	call   400 <strchr>
 28b:	83 c4 10             	add    $0x10,%esp
 28e:	85 c0                	test   %eax,%eax
 290:	89 c6                	mov    %eax,%esi
 292:	74 44                	je     2d8 <grep+0xa8>
 294:	83 ec 08             	sub    $0x8,%esp
 297:	c6 06 00             	movb   $0x0,(%esi)
 29a:	8d 7e 01             	lea    0x1(%esi),%edi
 29d:	53                   	push   %ebx
 29e:	ff 75 08             	pushl  0x8(%ebp)
 2a1:	e8 2a ff ff ff       	call   1d0 <match>
 2a6:	83 c4 10             	add    $0x10,%esp
 2a9:	85 c0                	test   %eax,%eax
 2ab:	75 0b                	jne    2b8 <grep+0x88>
 2ad:	89 fb                	mov    %edi,%ebx
 2af:	eb cf                	jmp    280 <grep+0x50>
 2b1:	8d b4 26 00 00 00 00 	lea    0x0(%esi,%eiz,1),%esi
 2b8:	89 f8                	mov    %edi,%eax
 2ba:	83 ec 04             	sub    $0x4,%esp
 2bd:	c6 06 0a             	movb   $0xa,(%esi)
 2c0:	29 d8                	sub    %ebx,%eax
 2c2:	50                   	push   %eax
 2c3:	53                   	push   %ebx
 2c4:	89 fb                	mov    %edi,%ebx
 2c6:	6a 01                	push   $0x1
 2c8:	e8 d5 02 00 00       	call   5a2 <write>
 2cd:	83 c4 10             	add    $0x10,%esp
 2d0:	eb ae                	jmp    280 <grep+0x50>
 2d2:	8d b6 00 00 00 00    	lea    0x0(%esi),%esi
 2d8:	81 fb 60 0e 00 00    	cmp    $0xe60,%ebx
 2de:	8b 75 e4             	mov    -0x1c(%ebp),%esi
 2e1:	74 2d                	je     310 <grep+0xe0>
 2e3:	85 f6                	test   %esi,%esi
 2e5:	0f 8e 55 ff ff ff    	jle    240 <grep+0x10>
 2eb:	89 d8                	mov    %ebx,%eax
 2ed:	83 ec 04             	sub    $0x4,%esp
 2f0:	2d 60 0e 00 00       	sub    $0xe60,%eax
 2f5:	29 c6                	sub    %eax,%esi
 2f7:	56                   	push   %esi
 2f8:	53                   	push   %ebx
 2f9:	68 60 0e 00 00       	push   $0xe60
 2fe:	e8 4d 02 00 00       	call   550 <memmove>
 303:	83 c4 10             	add    $0x10,%esp
 306:	e9 35 ff ff ff       	jmp    240 <grep+0x10>
 30b:	90                   	nop
 30c:	8d 74 26 00          	lea    0x0(%esi,%eiz,1),%esi
 310:	31 f6                	xor    %esi,%esi
 312:	e9 29 ff ff ff       	jmp    240 <grep+0x10>
 317:	89 f6                	mov    %esi,%esi
 319:	8d bc 27 00 00 00 00 	lea    0x0(%edi,%eiz,1),%edi
 320:	8d 65 f4             	lea    -0xc(%ebp),%esp
 323:	5b                   	pop    %ebx
 324:	5e                   	pop    %esi
 325:	5f                   	pop    %edi
 326:	5d                   	pop    %ebp
 327:	c3                   	ret    
 328:	66 90                	xchg   %ax,%ax
 32a:	66 90                	xchg   %ax,%ax
 32c:	66 90                	xchg   %ax,%ax
 32e:	66 90                	xchg   %ax,%ax

00000330 <strcpy>:
 330:	55                   	push   %ebp
 331:	89 e5                	mov    %esp,%ebp
 333:	53                   	push   %ebx
 334:	8b 45 08             	mov    0x8(%ebp),%eax
 337:	8b 4d 0c             	mov    0xc(%ebp),%ecx
 33a:	89 c2                	mov    %eax,%edx
 33c:	8d 74 26 00          	lea    0x0(%esi,%eiz,1),%esi
 340:	83 c1 01             	add    $0x1,%ecx
 343:	0f b6 59 ff          	movzbl -0x1(%ecx),%ebx
 347:	83 c2 01             	add    $0x1,%edx
 34a:	84 db                	test   %bl,%bl
 34c:	88 5a ff             	mov    %bl,-0x1(%edx)
 34f:	75 ef                	jne    340 <strcpy+0x10>
 351:	5b                   	pop    %ebx
 352:	5d                   	pop    %ebp
 353:	c3                   	ret    
 354:	8d b6 00 00 00 00    	lea    0x0(%esi),%esi
 35a:	8d bf 00 00 00 00    	lea    0x0(%edi),%edi

00000360 <strcmp>:
 360:	55                   	push   %ebp
 361:	89 e5                	mov    %esp,%ebp
 363:	53                   	push   %ebx
 364:	8b 55 08             	mov    0x8(%ebp),%edx
 367:	8b 4d 0c             	mov    0xc(%ebp),%ecx
 36a:	0f b6 02             	movzbl (%edx),%eax
 36d:	0f b6 19             	movzbl (%ecx),%ebx
 370:	84 c0                	test   %al,%al
 372:	75 1c                	jne    390 <strcmp+0x30>
 374:	eb 2a                	jmp    3a0 <strcmp+0x40>
 376:	8d 76 00             	lea    0x0(%esi),%esi
 379:	8d bc 27 00 00 00 00 	lea    0x0(%edi,%eiz,1),%edi
 380:	83 c2 01             	add    $0x1,%edx
 383:	0f b6 02             	movzbl (%edx),%eax
 386:	83 c1 01             	add    $0x1,%ecx
 389:	0f b6 19             	movzbl (%ecx),%ebx
 38c:	84 c0                	test   %al,%al
 38e:	74 10                	je     3a0 <strcmp+0x40>
 390:	38 d8                	cmp    %bl,%al
 392:	74 ec                	je     380 <strcmp+0x20>
 394:	29 d8                	sub    %ebx,%eax
 396:	5b                   	pop    %ebx
 397:	5d                   	pop    %ebp
 398:	c3                   	ret    
 399:	8d b4 26 00 00 00 00 	lea    0x0(%esi,%eiz,1),%esi
 3a0:	31 c0                	xor    %eax,%eax
 3a2:	29 d8                	sub    %ebx,%eax
 3a4:	5b                   	pop    %ebx
 3a5:	5d                   	pop    %ebp
 3a6:	c3                   	ret    
 3a7:	89 f6                	mov    %esi,%esi
 3a9:	8d bc 27 00 00 00 00 	lea    0x0(%edi,%eiz,1),%edi

000003b0 <strlen>:
 3b0:	55                   	push   %ebp
 3b1:	89 e5                	mov    %esp,%ebp
 3b3:	8b 4d 08             	mov    0x8(%ebp),%ecx
 3b6:	80 39 00             	cmpb   $0x0,(%ecx)
 3b9:	74 15                	je     3d0 <strlen+0x20>
 3bb:	31 d2                	xor    %edx,%edx
 3bd:	8d 76 00             	lea    0x0(%esi),%esi
 3c0:	83 c2 01             	add    $0x1,%edx
 3c3:	80 3c 11 00          	cmpb   $0x0,(%ecx,%edx,1)
 3c7:	89 d0                	mov    %edx,%eax
 3c9:	75 f5                	jne    3c0 <strlen+0x10>
 3cb:	5d                   	pop    %ebp
 3cc:	c3                   	ret    
 3cd:	8d 76 00             	lea    0x0(%esi),%esi
 3d0:	31 c0                	xor    %eax,%eax
 3d2:	5d                   	pop    %ebp
 3d3:	c3                   	ret    
 3d4:	8d b6 00 00 00 00    	lea    0x0(%esi),%esi
 3da:	8d bf 00 00 00 00    	lea    0x0(%edi),%edi

000003e0 <memset>:
 3e0:	55                   	push   %ebp
 3e1:	89 e5                	mov    %esp,%ebp
 3e3:	57                   	push   %edi
 3e4:	8b 55 08             	mov    0x8(%ebp),%edx
 3e7:	8b 4d 10             	mov    0x10(%ebp),%ecx
 3ea:	8b 45 0c             	mov    0xc(%ebp),%eax
 3ed:	89 d7                	mov    %edx,%edi
 3ef:	fc                   	cld    
 3f0:	f3 aa                	rep stos %al,%es:(%edi)
 3f2:	89 d0                	mov    %edx,%eax
 3f4:	5f                   	pop    %edi
 3f5:	5d                   	pop    %ebp
 3f6:	c3                   	ret    
 3f7:	89 f6                	mov    %esi,%esi
 3f9:	8d bc 27 00 00 00 00 	lea    0x0(%edi,%eiz,1),%edi

00000400 <strchr>:
 400:	55                   	push   %ebp
 401:	89 e5                	mov    %esp,%ebp
 403:	53                   	push   %ebx
 404:	8b 45 08             	mov    0x8(%ebp),%eax
 407:	8b 5d 0c             	mov    0xc(%ebp),%ebx
 40a:	0f b6 10             	movzbl (%eax),%edx
 40d:	84 d2                	test   %dl,%dl
 40f:	74 1d                	je     42e <strchr+0x2e>
 411:	38 d3                	cmp    %dl,%bl
 413:	89 d9                	mov    %ebx,%ecx
 415:	75 0d                	jne    424 <strchr+0x24>
 417:	eb 17                	jmp    430 <strchr+0x30>
 419:	8d b4 26 00 00 00 00 	lea    0x0(%esi,%eiz,1),%esi
 420:	38 ca                	cmp    %cl,%dl
 422:	74 0c                	je     430 <strchr+0x30>
 424:	83 c0 01             	add    $0x1,%eax
 427:	0f b6 10             	movzbl (%eax),%edx
 42a:	84 d2                	test   %dl,%dl
 42c:	75 f2                	jne    420 <strchr+0x20>
 42e:	31 c0                	xor    %eax,%eax
 430:	5b                   	pop    %ebx
 431:	5d                   	pop    %ebp
 432:	c3                   	ret    
 433:	8d b6 00 00 00 00    	lea    0x0(%esi),%esi
 439:	8d bc 27 00 00 00 00 	lea    0x0(%edi,%eiz,1),%edi

00000440 <gets>:
 440:	55                   	push   %ebp
 441:	89 e5                	mov    %esp,%ebp
 443:	57                   	push   %edi
 444:	56                   	push   %esi
 445:	53                   	push   %ebx
 446:	31 f6                	xor    %esi,%esi
 448:	89 f3                	mov    %esi,%ebx
 44a:	83 ec 1c             	sub    $0x1c,%esp
 44d:	8b 7d 08             	mov    0x8(%ebp),%edi
 450:	eb 2f                	jmp    481 <gets+0x41>
 452:	8d b6 00 00 00 00    	lea    0x0(%esi),%esi
 458:	8d 45 e7             	lea    -0x19(%ebp),%eax
 45b:	83 ec 04             	sub    $0x4,%esp
 45e:	6a 01                	push   $0x1
 460:	50                   	push   %eax
 461:	6a 00                	push   $0x0
 463:	e8 32 01 00 00       	call   59a <read>
 468:	83 c4 10             	add    $0x10,%esp
 46b:	85 c0                	test   %eax,%eax
 46d:	7e 1c                	jle    48b <gets+0x4b>
 46f:	0f b6 45 e7          	movzbl -0x19(%ebp),%eax
 473:	83 c7 01             	add    $0x1,%edi
 476:	88 47 ff             	mov    %al,-0x1(%edi)
 479:	3c 0a                	cmp    $0xa,%al
 47b:	74 23                	je     4a0 <gets+0x60>
 47d:	3c 0d                	cmp    $0xd,%al
 47f:	74 1f                	je     4a0 <gets+0x60>
 481:	83 c3 01             	add    $0x1,%ebx
 484:	3b 5d 0c             	cmp    0xc(%ebp),%ebx
 487:	89 fe                	mov    %edi,%esi
 489:	7c cd                	jl     458 <gets+0x18>
 48b:	89 f3                	mov    %esi,%ebx
 48d:	8b 45 08             	mov    0x8(%ebp),%eax
 490:	c6 03 00             	movb   $0x0,(%ebx)
 493:	8d 65 f4             	lea    -0xc(%ebp),%esp
 496:	5b                   	pop    %ebx
 497:	5e                   	pop    %esi
 498:	5f                   	pop    %edi
 499:	5d                   	pop    %ebp
 49a:	c3                   	ret    
 49b:	90                   	nop
 49c:	8d 74 26 00          	lea    0x0(%esi,%eiz,1),%esi
 4a0:	8b 75 08             	mov    0x8(%ebp),%esi
 4a3:	8b 45 08             	mov    0x8(%ebp),%eax
 4a6:	01 de                	add    %ebx,%esi
 4a8:	89 f3                	mov    %esi,%ebx
 4aa:	c6 03 00             	movb   $0x0,(%ebx)
 4ad:	8d 65 f4             	lea    -0xc(%ebp),%esp
 4b0:	5b                   	pop    %ebx
 4b1:	5e                   	pop    %esi
 4b2:	5f                   	pop    %edi
 4b3:	5d                   	pop    %ebp
 4b4:	c3                   	ret    
 4b5:	8d 74 26 00          	lea    0x0(%esi,%eiz,1),%esi
 4b9:	8d bc 27 00 00 00 00 	lea    0x0(%edi,%eiz,1),%edi

000004c0 <stat>:
 4c0:	55                   	push   %ebp
 4c1:	89 e5                	mov    %esp,%ebp
 4c3:	56                   	push   %esi
 4c4:	53                   	push   %ebx
 4c5:	83 ec 08             	sub    $0x8,%esp
 4c8:	6a 00                	push   $0x0
 4ca:	ff 75 08             	pushl  0x8(%ebp)
 4cd:	e8 f0 00 00 00       	call   5c2 <open>
 4d2:	83 c4 10             	add    $0x10,%esp
 4d5:	85 c0                	test   %eax,%eax
 4d7:	78 27                	js     500 <stat+0x40>
 4d9:	83 ec 08             	sub    $0x8,%esp
 4dc:	ff 75 0c             	pushl  0xc(%ebp)
 4df:	89 c3                	mov    %eax,%ebx
 4e1:	50                   	push   %eax
 4e2:	e8 f3 00 00 00       	call   5da <fstat>
 4e7:	89 1c 24             	mov    %ebx,(%esp)
 4ea:	89 c6                	mov    %eax,%esi
 4ec:	e8 b9 00 00 00       	call   5aa <close>
 4f1:	83 c4 10             	add    $0x10,%esp
 4f4:	8d 65 f8             	lea    -0x8(%ebp),%esp
 4f7:	89 f0                	mov    %esi,%eax
 4f9:	5b                   	pop    %ebx
 4fa:	5e                   	pop    %esi
 4fb:	5d                   	pop    %ebp
 4fc:	c3                   	ret    
 4fd:	8d 76 00             	lea    0x0(%esi),%esi
 500:	be ff ff ff ff       	mov    $0xffffffff,%esi
 505:	eb ed                	jmp    4f4 <stat+0x34>
 507:	89 f6                	mov    %esi,%esi
 509:	8d bc 27 00 00 00 00 	lea    0x0(%edi,%eiz,1),%edi

00000510 <atoi>:
 510:	55                   	push   %ebp
 511:	89 e5                	mov    %esp,%ebp
 513:	53                   	push   %ebx
 514:	8b 4d 08             	mov    0x8(%ebp),%ecx
 517:	0f be 11             	movsbl (%ecx),%edx
 51a:	8d 42 d0             	lea    -0x30(%edx),%eax
 51d:	3c 09                	cmp    $0x9,%al
 51f:	b8 00 00 00 00       	mov    $0x0,%eax
 524:	77 1f                	ja     545 <atoi+0x35>
 526:	8d 76 00             	lea    0x0(%esi),%esi
 529:	8d bc 27 00 00 00 00 	lea    0x0(%edi,%eiz,1),%edi
 530:	8d 04 80             	lea    (%eax,%eax,4),%eax
 533:	83 c1 01             	add    $0x1,%ecx
 536:	8d 44 42 d0          	lea    -0x30(%edx,%eax,2),%eax
 53a:	0f be 11             	movsbl (%ecx),%edx
 53d:	8d 5a d0             	lea    -0x30(%edx),%ebx
 540:	80 fb 09             	cmp    $0x9,%bl
 543:	76 eb                	jbe    530 <atoi+0x20>
 545:	5b                   	pop    %ebx
 546:	5d                   	pop    %ebp
 547:	c3                   	ret    
 548:	90                   	nop
 549:	8d b4 26 00 00 00 00 	lea    0x0(%esi,%eiz,1),%esi

00000550 <memmove>:
 550:	55                   	push   %ebp
 551:	89 e5                	mov    %esp,%ebp
 553:	56                   	push   %esi
 554:	53                   	push   %ebx
 555:	8b 5d 10             	mov    0x10(%ebp),%ebx
 558:	8b 45 08             	mov    0x8(%ebp),%eax
 55b:	8b 75 0c             	mov    0xc(%ebp),%esi
 55e:	85 db                	test   %ebx,%ebx
 560:	7e 14                	jle    576 <memmove+0x26>
 562:	31 d2                	xor    %edx,%edx
 564:	8d 74 26 00          	lea    0x0(%esi,%eiz,1),%esi
 568:	0f b6 0c 16          	movzbl (%esi,%edx,1),%ecx
 56c:	88 0c 10             	mov    %cl,(%eax,%edx,1)
 56f:	83 c2 01             	add    $0x1,%edx
 572:	39 d3                	cmp    %edx,%ebx
 574:	75 f2                	jne    568 <memmove+0x18>
 576:	5b                   	pop    %ebx
 577:	5e                   	pop    %esi
 578:	5d                   	pop    %ebp
 579:	c3                   	ret    

0000057a <fork>:
  name: \
    movl $SYS_ ## name, %eax; \
    int $T_SYSCALL; \
    ret

SYSCALL(fork)
 57a:	b8 01 00 00 00       	mov    $0x1,%eax
 57f:	cd 40                	int    $0x40
 581:	c3                   	ret    

00000582 <exit>:
SYSCALL(exit)
 582:	b8 02 00 00 00       	mov    $0x2,%eax
 587:	cd 40                	int    $0x40
 589:	c3                   	ret    

0000058a <wait>:
SYSCALL(wait)
 58a:	b8 03 00 00 00       	mov    $0x3,%eax
 58f:	cd 40                	int    $0x40
 591:	c3                   	ret    

00000592 <pipe>:
SYSCALL(pipe)
 592:	b8 04 00 00 00       	mov    $0x4,%eax
 597:	cd 40                	int    $0x40
 599:	c3                   	ret    

0000059a <read>:
SYSCALL(read)
 59a:	b8 05 00 00 00       	mov    $0x5,%eax
 59f:	cd 40                	int    $0x40
 5a1:	c3                   	ret    

000005a2 <write>:
SYSCALL(write)
 5a2:	b8 10 00 00 00       	mov    $0x10,%eax
 5a7:	cd 40                	int    $0x40
 5a9:	c3                   	ret    

000005aa <close>:
SYSCALL(close)
 5aa:	b8 15 00 00 00       	mov    $0x15,%eax
 5af:	cd 40                	int    $0x40
 5b1:	c3                   	ret    

000005b2 <kill>:
SYSCALL(kill)
 5b2:	b8 06 00 00 00       	mov    $0x6,%eax
 5b7:	cd 40                	int    $0x40
 5b9:	c3                   	ret    

000005ba <exec>:
SYSCALL(exec)
 5ba:	b8 07 00 00 00       	mov    $0x7,%eax
 5bf:	cd 40                	int    $0x40
 5c1:	c3                   	ret    

000005c2 <open>:
SYSCALL(open)
 5c2:	b8 0f 00 00 00       	mov    $0xf,%eax
 5c7:	cd 40                	int    $0x40
 5c9:	c3                   	ret    

000005ca <mknod>:
SYSCALL(mknod)
 5ca:	b8 11 00 00 00       	mov    $0x11,%eax
 5cf:	cd 40                	int    $0x40
 5d1:	c3                   	ret    

000005d2 <unlink>:
SYSCALL(unlink)
 5d2:	b8 12 00 00 00       	mov    $0x12,%eax
 5d7:	cd 40                	int    $0x40
 5d9:	c3                   	ret    

000005da <fstat>:
SYSCALL(fstat)
 5da:	b8 08 00 00 00       	mov    $0x8,%eax
 5df:	cd 40                	int    $0x40
 5e1:	c3                   	ret    

000005e2 <link>:
SYSCALL(link)
 5e2:	b8 13 00 00 00       	mov    $0x13,%eax
 5e7:	cd 40                	int    $0x40
 5e9:	c3                   	ret    

000005ea <mkdir>:
SYSCALL(mkdir)
 5ea:	b8 14 00 00 00       	mov    $0x14,%eax
 5ef:	cd 40                	int    $0x40
 5f1:	c3                   	ret    

000005f2 <chdir>:
SYSCALL(chdir)
 5f2:	b8 09 00 00 00       	mov    $0x9,%eax
 5f7:	cd 40                	int    $0x40
 5f9:	c3                   	ret    

000005fa <dup>:
SYSCALL(dup)
 5fa:	b8 0a 00 00 00       	mov    $0xa,%eax
 5ff:	cd 40                	int    $0x40
 601:	c3                   	ret    

00000602 <getpid>:
SYSCALL(getpid)
 602:	b8 0b 00 00 00       	mov    $0xb,%eax
 607:	cd 40                	int    $0x40
 609:	c3                   	ret    

0000060a <sbrk>:
SYSCALL(sbrk)
 60a:	b8 0c 00 00 00       	mov    $0xc,%eax
 60f:	cd 40                	int    $0x40
 611:	c3                   	ret    

00000612 <sleep>:
SYSCALL(sleep)
 612:	b8 0d 00 00 00       	mov    $0xd,%eax
 617:	cd 40                	int    $0x40
 619:	c3                   	ret    

0000061a <uptime>:
SYSCALL(uptime)
 61a:	b8 0e 00 00 00       	mov    $0xe,%eax
 61f:	cd 40                	int    $0x40
 621:	c3                   	ret    

00000622 <getreadcount>:
SYSCALL(getreadcount)
 622:	b8 16 00 00 00       	mov    $0x16,%eax
 627:	cd 40                	int    $0x40
 629:	c3                   	ret    

0000062a <gettime>:
SYSCALL(gettime)
 62a:	b8 17 00 00 00       	mov    $0x17,%eax
 62f:	cd 40                	int    $0x40
 631:	c3                   	ret    

00000632 <settickets>:
SYSCALL(settickets)
 632:	b8 18 00 00 00       	mov    $0x18,%eax
 637:	cd 40                	int    $0x40
 639:	c3                   	ret    

0000063a <getpinfo>:
 63a:	b8 19 00 00 00       	mov    $0x19,%eax
 63f:	cd 40                	int    $0x40
 641:	c3                   	ret    
 642:	66 90                	xchg   %ax,%ax
 644:	66 90                	xchg   %ax,%ax
 646:	66 90                	xchg   %ax,%ax
 648:	66 90                	xchg   %ax,%ax
 64a:	66 90                	xchg   %ax,%ax
 64c:	66 90                	xchg   %ax,%ax
 64e:	66 90                	xchg   %ax,%ax

00000650 <printint>:
 650:	55                   	push   %ebp
 651:	89 e5                	mov    %esp,%ebp
 653:	57                   	push   %edi
 654:	56                   	push   %esi
 655:	53                   	push   %ebx
 656:	83 ec 3c             	sub    $0x3c,%esp
 659:	85 d2                	test   %edx,%edx
 65b:	89 45 c0             	mov    %eax,-0x40(%ebp)
 65e:	89 d0                	mov    %edx,%eax
 660:	79 76                	jns    6d8 <printint+0x88>
 662:	f6 45 08 01          	testb  $0x1,0x8(%ebp)
 666:	74 70                	je     6d8 <printint+0x88>
 668:	f7 d8                	neg    %eax
 66a:	c7 45 c4 01 00 00 00 	movl   $0x1,-0x3c(%ebp)
 671:	31 f6                	xor    %esi,%esi
 673:	8d 5d d7             	lea    -0x29(%ebp),%ebx
 676:	eb 0a                	jmp    682 <printint+0x32>
 678:	90                   	nop
 679:	8d b4 26 00 00 00 00 	lea    0x0(%esi,%eiz,1),%esi
 680:	89 fe                	mov    %edi,%esi
 682:	31 d2                	xor    %edx,%edx
 684:	8d 7e 01             	lea    0x1(%esi),%edi
 687:	f7 f1                	div    %ecx
 689:	0f b6 92 a8 0a 00 00 	movzbl 0xaa8(%edx),%edx
 690:	85 c0                	test   %eax,%eax
 692:	88 14 3b             	mov    %dl,(%ebx,%edi,1)
 695:	75 e9                	jne    680 <printint+0x30>
 697:	8b 45 c4             	mov    -0x3c(%ebp),%eax
 69a:	85 c0                	test   %eax,%eax
 69c:	74 08                	je     6a6 <printint+0x56>
 69e:	c6 44 3d d8 2d       	movb   $0x2d,-0x28(%ebp,%edi,1)
 6a3:	8d 7e 02             	lea    0x2(%esi),%edi
 6a6:	8d 74 3d d7          	lea    -0x29(%ebp,%edi,1),%esi
 6aa:	8b 7d c0             	mov    -0x40(%ebp),%edi
 6ad:	8d 76 00             	lea    0x0(%esi),%esi
 6b0:	0f b6 06             	movzbl (%esi),%eax
 6b3:	83 ec 04             	sub    $0x4,%esp
 6b6:	83 ee 01             	sub    $0x1,%esi
 6b9:	6a 01                	push   $0x1
 6bb:	53                   	push   %ebx
 6bc:	57                   	push   %edi
 6bd:	88 45 d7             	mov    %al,-0x29(%ebp)
 6c0:	e8 dd fe ff ff       	call   5a2 <write>
 6c5:	83 c4 10             	add    $0x10,%esp
 6c8:	39 de                	cmp    %ebx,%esi
 6ca:	75 e4                	jne    6b0 <printint+0x60>
 6cc:	8d 65 f4             	lea    -0xc(%ebp),%esp
 6cf:	5b                   	pop    %ebx
 6d0:	5e                   	pop    %esi
 6d1:	5f                   	pop    %edi
 6d2:	5d                   	pop    %ebp
 6d3:	c3                   	ret    
 6d4:	8d 74 26 00          	lea    0x0(%esi,%eiz,1),%esi
 6d8:	c7 45 c4 00 00 00 00 	movl   $0x0,-0x3c(%ebp)
 6df:	eb 90                	jmp    671 <printint+0x21>
 6e1:	eb 0d                	jmp    6f0 <printf>
 6e3:	90                   	nop
 6e4:	90                   	nop
 6e5:	90                   	nop
 6e6:	90                   	nop
 6e7:	90                   	nop
 6e8:	90                   	nop
 6e9:	90                   	nop
 6ea:	90                   	nop
 6eb:	90                   	nop
 6ec:	90                   	nop
 6ed:	90                   	nop
 6ee:	90                   	nop
 6ef:	90                   	nop

000006f0 <printf>:
 6f0:	55                   	push   %ebp
 6f1:	89 e5                	mov    %esp,%ebp
 6f3:	57                   	push   %edi
 6f4:	56                   	push   %esi
 6f5:	53                   	push   %ebx
 6f6:	83 ec 2c             	sub    $0x2c,%esp
 6f9:	8b 75 0c             	mov    0xc(%ebp),%esi
 6fc:	0f b6 1e             	movzbl (%esi),%ebx
 6ff:	84 db                	test   %bl,%bl
 701:	0f 84 bf 00 00 00    	je     7c6 <printf+0xd6>
 707:	83 c6 01             	add    $0x1,%esi
 70a:	8d 7d 10             	lea    0x10(%ebp),%edi
 70d:	31 d2                	xor    %edx,%edx
 70f:	eb 39                	jmp    74a <printf+0x5a>
 711:	8d b4 26 00 00 00 00 	lea    0x0(%esi,%eiz,1),%esi
 718:	83 f8 25             	cmp    $0x25,%eax
 71b:	89 55 d4             	mov    %edx,-0x2c(%ebp)
 71e:	ba 25 00 00 00       	mov    $0x25,%edx
 723:	74 1a                	je     73f <printf+0x4f>
 725:	8d 45 e2             	lea    -0x1e(%ebp),%eax
 728:	83 ec 04             	sub    $0x4,%esp
 72b:	88 5d e2             	mov    %bl,-0x1e(%ebp)
 72e:	6a 01                	push   $0x1
 730:	50                   	push   %eax
 731:	ff 75 08             	pushl  0x8(%ebp)
 734:	e8 69 fe ff ff       	call   5a2 <write>
 739:	8b 55 d4             	mov    -0x2c(%ebp),%edx
 73c:	83 c4 10             	add    $0x10,%esp
 73f:	83 c6 01             	add    $0x1,%esi
 742:	0f b6 5e ff          	movzbl -0x1(%esi),%ebx
 746:	84 db                	test   %bl,%bl
 748:	74 7c                	je     7c6 <printf+0xd6>
 74a:	85 d2                	test   %edx,%edx
 74c:	0f be cb             	movsbl %bl,%ecx
 74f:	0f b6 c3             	movzbl %bl,%eax
 752:	74 c4                	je     718 <printf+0x28>
 754:	83 fa 25             	cmp    $0x25,%edx
 757:	75 e6                	jne    73f <printf+0x4f>
 759:	83 f8 64             	cmp    $0x64,%eax
 75c:	0f 84 a6 00 00 00    	je     808 <printf+0x118>
 762:	83 f8 6c             	cmp    $0x6c,%eax
 765:	0f 84 ad 00 00 00    	je     818 <printf+0x128>
 76b:	81 e1 f7 00 00 00    	and    $0xf7,%ecx
 771:	83 f9 70             	cmp    $0x70,%ecx
 774:	74 5a                	je     7d0 <printf+0xe0>
 776:	83 f8 73             	cmp    $0x73,%eax
 779:	0f 84 e1 00 00 00    	je     860 <printf+0x170>
 77f:	83 f8 63             	cmp    $0x63,%eax
 782:	0f 84 28 01 00 00    	je     8b0 <printf+0x1c0>
 788:	83 f8 25             	cmp    $0x25,%eax
 78b:	74 6b                	je     7f8 <printf+0x108>
 78d:	8d 45 e7             	lea    -0x19(%ebp),%eax
 790:	83 ec 04             	sub    $0x4,%esp
 793:	c6 45 e7 25          	movb   $0x25,-0x19(%ebp)
 797:	6a 01                	push   $0x1
 799:	50                   	push   %eax
 79a:	ff 75 08             	pushl  0x8(%ebp)
 79d:	e8 00 fe ff ff       	call   5a2 <write>
 7a2:	83 c4 0c             	add    $0xc,%esp
 7a5:	8d 45 e6             	lea    -0x1a(%ebp),%eax
 7a8:	88 5d e6             	mov    %bl,-0x1a(%ebp)
 7ab:	6a 01                	push   $0x1
 7ad:	50                   	push   %eax
 7ae:	ff 75 08             	pushl  0x8(%ebp)
 7b1:	83 c6 01             	add    $0x1,%esi
 7b4:	e8 e9 fd ff ff       	call   5a2 <write>
 7b9:	0f b6 5e ff          	movzbl -0x1(%esi),%ebx
 7bd:	83 c4 10             	add    $0x10,%esp
 7c0:	31 d2                	xor    %edx,%edx
 7c2:	84 db                	test   %bl,%bl
 7c4:	75 84                	jne    74a <printf+0x5a>
 7c6:	8d 65 f4             	lea    -0xc(%ebp),%esp
 7c9:	5b                   	pop    %ebx
 7ca:	5e                   	pop    %esi
 7cb:	5f                   	pop    %edi
 7cc:	5d                   	pop    %ebp
 7cd:	c3                   	ret    
 7ce:	66 90                	xchg   %ax,%ax
 7d0:	83 ec 0c             	sub    $0xc,%esp
 7d3:	b9 10 00 00 00       	mov    $0x10,%ecx
 7d8:	6a 00                	push   $0x0
 7da:	8b 17                	mov    (%edi),%edx
 7dc:	8b 45 08             	mov    0x8(%ebp),%eax
 7df:	83 c7 04             	add    $0x4,%edi
 7e2:	e8 69 fe ff ff       	call   650 <printint>
 7e7:	83 c4 10             	add    $0x10,%esp
 7ea:	31 d2                	xor    %edx,%edx
 7ec:	e9 4e ff ff ff       	jmp    73f <printf+0x4f>
 7f1:	8d b4 26 00 00 00 00 	lea    0x0(%esi,%eiz,1),%esi
 7f8:	83 ec 04             	sub    $0x4,%esp
 7fb:	88 5d e5             	mov    %bl,-0x1b(%ebp)
 7fe:	8d 45 e5             	lea    -0x1b(%ebp),%eax
 801:	6a 01                	push   $0x1
 803:	eb a8                	jmp    7ad <printf+0xbd>
 805:	8d 76 00             	lea    0x0(%esi),%esi
 808:	83 ec 0c             	sub    $0xc,%esp
 80b:	b9 0a 00 00 00       	mov    $0xa,%ecx
 810:	6a 01                	push   $0x1
 812:	eb c6                	jmp    7da <printf+0xea>
 814:	8d 74 26 00          	lea    0x0(%esi,%eiz,1),%esi
 818:	8b 57 04             	mov    0x4(%edi),%edx
 81b:	8b 1f                	mov    (%edi),%ebx
 81d:	85 d2                	test   %edx,%edx
 81f:	74 15                	je     836 <printf+0x146>
 821:	83 ec 0c             	sub    $0xc,%esp
 824:	8b 45 08             	mov    0x8(%ebp),%eax
 827:	b9 10 00 00 00       	mov    $0x10,%ecx
 82c:	6a 00                	push   $0x0
 82e:	e8 1d fe ff ff       	call   650 <printint>
 833:	83 c4 10             	add    $0x10,%esp
 836:	83 ec 0c             	sub    $0xc,%esp
 839:	8b 45 08             	mov    0x8(%ebp),%eax
 83c:	89 da                	mov    %ebx,%edx
 83e:	6a 00                	push   $0x0
 840:	b9 10 00 00 00       	mov    $0x10,%ecx
 845:	83 c7 08             	add    $0x8,%edi
 848:	e8 03 fe ff ff       	call   650 <printint>
 84d:	83 c4 10             	add    $0x10,%esp
 850:	31 d2                	xor    %edx,%edx
 852:	e9 e8 fe ff ff       	jmp    73f <printf+0x4f>
 857:	89 f6                	mov    %esi,%esi
 859:	8d bc 27 00 00 00 00 	lea    0x0(%edi,%eiz,1),%edi
 860:	8b 0f                	mov    (%edi),%ecx
 862:	83 c7 04             	add    $0x4,%edi
 865:	85 c9                	test   %ecx,%ecx
 867:	74 6a                	je     8d3 <printf+0x1e3>
 869:	0f b6 01             	movzbl (%ecx),%eax
 86c:	31 d2                	xor    %edx,%edx
 86e:	89 cb                	mov    %ecx,%ebx
 870:	84 c0                	test   %al,%al
 872:	0f 84 c7 fe ff ff    	je     73f <printf+0x4f>
 878:	89 75 d4             	mov    %esi,-0x2c(%ebp)
 87b:	89 de                	mov    %ebx,%esi
 87d:	8b 5d 08             	mov    0x8(%ebp),%ebx
 880:	88 45 e3             	mov    %al,-0x1d(%ebp)
 883:	8d 45 e3             	lea    -0x1d(%ebp),%eax
 886:	83 ec 04             	sub    $0x4,%esp
 889:	6a 01                	push   $0x1
 88b:	83 c6 01             	add    $0x1,%esi
 88e:	50                   	push   %eax
 88f:	53                   	push   %ebx
 890:	e8 0d fd ff ff       	call   5a2 <write>
 895:	0f b6 06             	movzbl (%esi),%eax
 898:	83 c4 10             	add    $0x10,%esp
 89b:	84 c0                	test   %al,%al
 89d:	75 e1                	jne    880 <printf+0x190>
 89f:	8b 75 d4             	mov    -0x2c(%ebp),%esi
 8a2:	31 d2                	xor    %edx,%edx
 8a4:	e9 96 fe ff ff       	jmp    73f <printf+0x4f>
 8a9:	8d b4 26 00 00 00 00 	lea    0x0(%esi,%eiz,1),%esi
 8b0:	8b 07                	mov    (%edi),%eax
 8b2:	83 ec 04             	sub    $0x4,%esp
 8b5:	83 c7 04             	add    $0x4,%edi
 8b8:	6a 01                	push   $0x1
 8ba:	88 45 e4             	mov    %al,-0x1c(%ebp)
 8bd:	8d 45 e4             	lea    -0x1c(%ebp),%eax
 8c0:	50                   	push   %eax
 8c1:	ff 75 08             	pushl  0x8(%ebp)
 8c4:	e8 d9 fc ff ff       	call   5a2 <write>
 8c9:	83 c4 10             	add    $0x10,%esp
 8cc:	31 d2                	xor    %edx,%edx
 8ce:	e9 6c fe ff ff       	jmp    73f <printf+0x4f>
 8d3:	bb 9e 0a 00 00       	mov    $0xa9e,%ebx
 8d8:	b8 28 00 00 00       	mov    $0x28,%eax
 8dd:	eb 99                	jmp    878 <printf+0x188>
 8df:	90                   	nop

000008e0 <free>:
 8e0:	55                   	push   %ebp
 8e1:	a1 40 0e 00 00       	mov    0xe40,%eax
 8e6:	89 e5                	mov    %esp,%ebp
 8e8:	57                   	push   %edi
 8e9:	56                   	push   %esi
 8ea:	53                   	push   %ebx
 8eb:	8b 5d 08             	mov    0x8(%ebp),%ebx
 8ee:	8d 4b f8             	lea    -0x8(%ebx),%ecx
 8f1:	8d b4 26 00 00 00 00 	lea    0x0(%esi,%eiz,1),%esi
 8f8:	39 c8                	cmp    %ecx,%eax
 8fa:	8b 10                	mov    (%eax),%edx
 8fc:	73 32                	jae    930 <free+0x50>
 8fe:	39 d1                	cmp    %edx,%ecx
 900:	72 04                	jb     906 <free+0x26>
 902:	39 d0                	cmp    %edx,%eax
 904:	72 32                	jb     938 <free+0x58>
 906:	8b 73 fc             	mov    -0x4(%ebx),%esi
 909:	8d 3c f1             	lea    (%ecx,%esi,8),%edi
 90c:	39 fa                	cmp    %edi,%edx
 90e:	74 30                	je     940 <free+0x60>
 910:	89 53 f8             	mov    %edx,-0x8(%ebx)
 913:	8b 50 04             	mov    0x4(%eax),%edx
 916:	8d 34 d0             	lea    (%eax,%edx,8),%esi
 919:	39 f1                	cmp    %esi,%ecx
 91b:	74 3a                	je     957 <free+0x77>
 91d:	89 08                	mov    %ecx,(%eax)
 91f:	a3 40 0e 00 00       	mov    %eax,0xe40
 924:	5b                   	pop    %ebx
 925:	5e                   	pop    %esi
 926:	5f                   	pop    %edi
 927:	5d                   	pop    %ebp
 928:	c3                   	ret    
 929:	8d b4 26 00 00 00 00 	lea    0x0(%esi,%eiz,1),%esi
 930:	39 d0                	cmp    %edx,%eax
 932:	72 04                	jb     938 <free+0x58>
 934:	39 d1                	cmp    %edx,%ecx
 936:	72 ce                	jb     906 <free+0x26>
 938:	89 d0                	mov    %edx,%eax
 93a:	eb bc                	jmp    8f8 <free+0x18>
 93c:	8d 74 26 00          	lea    0x0(%esi,%eiz,1),%esi
 940:	03 72 04             	add    0x4(%edx),%esi
 943:	89 73 fc             	mov    %esi,-0x4(%ebx)
 946:	8b 10                	mov    (%eax),%edx
 948:	8b 12                	mov    (%edx),%edx
 94a:	89 53 f8             	mov    %edx,-0x8(%ebx)
 94d:	8b 50 04             	mov    0x4(%eax),%edx
 950:	8d 34 d0             	lea    (%eax,%edx,8),%esi
 953:	39 f1                	cmp    %esi,%ecx
 955:	75 c6                	jne    91d <free+0x3d>
 957:	03 53 fc             	add    -0x4(%ebx),%edx
 95a:	a3 40 0e 00 00       	mov    %eax,0xe40
 95f:	89 50 04             	mov    %edx,0x4(%eax)
 962:	8b 53 f8             	mov    -0x8(%ebx),%edx
 965:	89 10                	mov    %edx,(%eax)
 967:	5b                   	pop    %ebx
 968:	5e                   	pop    %esi
 969:	5f                   	pop    %edi
 96a:	5d                   	pop    %ebp
 96b:	c3                   	ret    
 96c:	8d 74 26 00          	lea    0x0(%esi,%eiz,1),%esi

00000970 <malloc>:
 970:	55                   	push   %ebp
 971:	89 e5                	mov    %esp,%ebp
 973:	57                   	push   %edi
 974:	56                   	push   %esi
 975:	53                   	push   %ebx
 976:	83 ec 0c             	sub    $0xc,%esp
 979:	8b 45 08             	mov    0x8(%ebp),%eax
 97c:	8b 15 40 0e 00 00    	mov    0xe40,%edx
 982:	8d 78 07             	lea    0x7(%eax),%edi
 985:	c1 ef 03             	shr    $0x3,%edi
 988:	83 c7 01             	add    $0x1,%edi
 98b:	85 d2                	test   %edx,%edx
 98d:	0f 84 9d 00 00 00    	je     a30 <malloc+0xc0>
 993:	8b 02                	mov    (%edx),%eax
 995:	8b 48 04             	mov    0x4(%eax),%ecx
 998:	39 cf                	cmp    %ecx,%edi
 99a:	76 6c                	jbe    a08 <malloc+0x98>
 99c:	81 ff 00 10 00 00    	cmp    $0x1000,%edi
 9a2:	bb 00 10 00 00       	mov    $0x1000,%ebx
 9a7:	0f 43 df             	cmovae %edi,%ebx
 9aa:	8d 34 dd 00 00 00 00 	lea    0x0(,%ebx,8),%esi
 9b1:	eb 0e                	jmp    9c1 <malloc+0x51>
 9b3:	90                   	nop
 9b4:	8d 74 26 00          	lea    0x0(%esi,%eiz,1),%esi
 9b8:	8b 02                	mov    (%edx),%eax
 9ba:	8b 48 04             	mov    0x4(%eax),%ecx
 9bd:	39 f9                	cmp    %edi,%ecx
 9bf:	73 47                	jae    a08 <malloc+0x98>
 9c1:	39 05 40 0e 00 00    	cmp    %eax,0xe40
 9c7:	89 c2                	mov    %eax,%edx
 9c9:	75 ed                	jne    9b8 <malloc+0x48>
 9cb:	83 ec 0c             	sub    $0xc,%esp
 9ce:	56                   	push   %esi
 9cf:	e8 36 fc ff ff       	call   60a <sbrk>
 9d4:	83 c4 10             	add    $0x10,%esp
 9d7:	83 f8 ff             	cmp    $0xffffffff,%eax
 9da:	74 1c                	je     9f8 <malloc+0x88>
 9dc:	89 58 04             	mov    %ebx,0x4(%eax)
 9df:	83 ec 0c             	sub    $0xc,%esp
 9e2:	83 c0 08             	add    $0x8,%eax
 9e5:	50                   	push   %eax
 9e6:	e8 f5 fe ff ff       	call   8e0 <free>
 9eb:	8b 15 40 0e 00 00    	mov    0xe40,%edx
 9f1:	83 c4 10             	add    $0x10,%esp
 9f4:	85 d2                	test   %edx,%edx
 9f6:	75 c0                	jne    9b8 <malloc+0x48>
 9f8:	8d 65 f4             	lea    -0xc(%ebp),%esp
 9fb:	31 c0                	xor    %eax,%eax
 9fd:	5b                   	pop    %ebx
 9fe:	5e                   	pop    %esi
 9ff:	5f                   	pop    %edi
 a00:	5d                   	pop    %ebp
 a01:	c3                   	ret    
 a02:	8d b6 00 00 00 00    	lea    0x0(%esi),%esi
 a08:	39 cf                	cmp    %ecx,%edi
 a0a:	74 54                	je     a60 <malloc+0xf0>
 a0c:	29 f9                	sub    %edi,%ecx
 a0e:	89 48 04             	mov    %ecx,0x4(%eax)
 a11:	8d 04 c8             	lea    (%eax,%ecx,8),%eax
 a14:	89 78 04             	mov    %edi,0x4(%eax)
 a17:	89 15 40 0e 00 00    	mov    %edx,0xe40
 a1d:	8d 65 f4             	lea    -0xc(%ebp),%esp
 a20:	83 c0 08             	add    $0x8,%eax
 a23:	5b                   	pop    %ebx
 a24:	5e                   	pop    %esi
 a25:	5f                   	pop    %edi
 a26:	5d                   	pop    %ebp
 a27:	c3                   	ret    
 a28:	90                   	nop
 a29:	8d b4 26 00 00 00 00 	lea    0x0(%esi,%eiz,1),%esi
 a30:	c7 05 40 0e 00 00 44 	movl   $0xe44,0xe40
 a37:	0e 00 00 
 a3a:	c7 05 44 0e 00 00 44 	movl   $0xe44,0xe44
 a41:	0e 00 00 
 a44:	b8 44 0e 00 00       	mov    $0xe44,%eax
 a49:	c7 05 48 0e 00 00 00 	movl   $0x0,0xe48
 a50:	00 00 00 
 a53:	e9 44 ff ff ff       	jmp    99c <malloc+0x2c>
 a58:	90                   	nop
 a59:	8d b4 26 00 00 00 00 	lea    0x0(%esi,%eiz,1),%esi
 a60:	8b 08                	mov    (%eax),%ecx
 a62:	89 0a                	mov    %ecx,(%edx)
 a64:	eb b1                	jmp    a17 <malloc+0xa7>
